target datalayout = "e-m:e-p270:32:32-p271:32:32-p272:64:64-i64:64-i128:128-f80:128-n8:16:32:64-S128"
target triple = "x86_64-pc-linux-gnu"

%struct.UConverter = type { ptr, ptr, ptr, ptr, ptr, ptr, ptr, i32, i8, i8, i8, i8, i8, [7 x i8], i32, i32, i32, i32, i8, i8, i8, i8, i8, i8, i8, i8, [8 x i8], [32 x i8], [2 x i16], [2 x i16], [32 x i16], i32, [19 x i16], [31 x i8], i8, i8, i8, i32 }
%struct.UConverterDataLMBCS = type { [20 x ptr], i8, i8 }

; Function Attrs: mustprogress uwtable
define internal void @_ZL11_LMBCSCloseP10UConverter(ptr noundef %0) #0 {
  %2 = alloca ptr, align 8
  %3 = alloca i8, align 1
  %4 = alloca ptr, align 8
  store ptr %0, ptr %2, align 8, !tbaa !3
  %5 = load ptr, ptr %2, align 8, !tbaa !3
  %6 = getelementptr inbounds nuw %struct.UConverter, ptr %5, i32 0, i32 2
  %7 = load ptr, ptr %6, align 8, !tbaa !9
  %8 = icmp ne ptr %7, null
  br i1 %8, label %9, label %48

9:                                                ; preds = %1
  call void @llvm.lifetime.start.p0(i64 1, ptr %3) #9
  call void @llvm.lifetime.start.p0(i64 8, ptr %4) #9
  %10 = load ptr, ptr %2, align 8, !tbaa !3
  %11 = getelementptr inbounds nuw %struct.UConverter, ptr %10, i32 0, i32 2
  %12 = load ptr, ptr %11, align 8, !tbaa !9
  store ptr %12, ptr %4, align 8, !tbaa !8
  store i8 0, ptr %3, align 1, !tbaa !15
  br label %13

13:                                               ; preds = %33, %9
  %14 = load i8, ptr %3, align 1, !tbaa !15
  %15 = zext i8 %14 to i32
  %16 = icmp sle i32 %15, 19
  br i1 %16, label %17, label %36

17:                                               ; preds = %13
  %18 = load ptr, ptr %4, align 8, !tbaa !8
  %19 = getelementptr inbounds nuw %struct.UConverterDataLMBCS, ptr %18, i32 0, i32 0
  %20 = load i8, ptr %3, align 1, !tbaa !15
  %21 = zext i8 %20 to i64
  %22 = getelementptr inbounds nuw [20 x ptr], ptr %19, i64 0, i64 %21
  %23 = load ptr, ptr %22, align 8, !tbaa !16
  %24 = icmp ne ptr %23, null
  br i1 %24, label %25, label %32

25:                                               ; preds = %17
  %26 = load ptr, ptr %4, align 8, !tbaa !8
  %27 = getelementptr inbounds nuw %struct.UConverterDataLMBCS, ptr %26, i32 0, i32 0
  %28 = load i8, ptr %3, align 1, !tbaa !15
  %29 = zext i8 %28 to i64
  %30 = getelementptr inbounds nuw [20 x ptr], ptr %27, i64 0, i64 %29
  %31 = load ptr, ptr %30, align 8, !tbaa !16
  call void @ucnv_unloadSharedDataIfReady_77(ptr noundef %31)
  br label %32

32:                                               ; preds = %25, %17
  br label %33

33:                                               ; preds = %32
  %34 = load i8, ptr %3, align 1, !tbaa !15
  %35 = add i8 %34, 1
  store i8 %35, ptr %3, align 1, !tbaa !15
  br label %13, !llvm.loop !17

36:                                               ; preds = %13
  %37 = load ptr, ptr %2, align 8, !tbaa !3
  %38 = getelementptr inbounds nuw %struct.UConverter, ptr %37, i32 0, i32 10
  %39 = load i8, ptr %38, align 2, !tbaa !19
  %40 = icmp ne i8 %39, 0
  br i1 %40, label %47, label %41

41:                                               ; preds = %36
  %42 = load ptr, ptr %2, align 8, !tbaa !3
  %43 = getelementptr inbounds nuw %struct.UConverter, ptr %42, i32 0, i32 2
  %44 = load ptr, ptr %43, align 8, !tbaa !9
  call void @uprv_free_77(ptr noundef %44)
  %45 = load ptr, ptr %2, align 8, !tbaa !3
  %46 = getelementptr inbounds nuw %struct.UConverter, ptr %45, i32 0, i32 2
  store ptr null, ptr %46, align 8, !tbaa !9
  br label %47

47:                                               ; preds = %41, %36
  call void @llvm.lifetime.end.p0(i64 8, ptr %4) #9
  call void @llvm.lifetime.end.p0(i64 1, ptr %3) #9
  br label %48

48:                                               ; preds = %47, %1
  ret void
}