; Function Attrs: mustprogress uwtable
define internal void @_ZL11_LMBCSCloseP10UConverter(ptr noundef captures(none) %0) #0 {
  %2 = getelementptr inbounds nuw i8, ptr %0, i64 16
  %3 = load ptr, ptr %2, align 8, !tbaa !3
  %.not = icmp eq ptr %3, null
  br i1 %.not, label %13, label %.preheader

.preheader:                                       ; preds = %1, %7
  %indvars.iv = phi i64 [ %indvars.iv.next, %7 ], [ 0, %1 ]
  %4 = getelementptr inbounds nuw [20 x ptr], ptr %3, i64 0, i64 %indvars.iv
  %5 = load ptr, ptr %4, align 8, !tbaa !12
  %.not13 = icmp eq ptr %5, null
  br i1 %.not13, label %7, label %6

6:                                                ; preds = %.preheader
  tail call void @ucnv_unloadSharedDataIfReady_77(ptr noundef nonnull %5)
  br label %7

7:                                                ; preds = %.preheader, %6
  %indvars.iv.next = add nuw nsw i64 %indvars.iv, 1
  %exitcond.not = icmp eq i64 %indvars.iv.next, 20
  br i1 %exitcond.not, label %8, label %.preheader, !llvm.loop !13

8:                                                ; preds = %7
  %9 = getelementptr inbounds nuw i8, ptr %0, i64 62
  %10 = load i8, ptr %9, align 2, !tbaa !15
  %.not12 = icmp eq i8 %10, 0
  br i1 %.not12, label %11, label %13

11:                                               ; preds = %8
  %12 = load ptr, ptr %2, align 8, !tbaa !3
  tail call void @uprv_free_77(ptr noundef %12)
  store ptr null, ptr %2, align 8, !tbaa !3
  br label %13

13:                                               ; preds = %8, %11, %1
  ret void
}